; ModuleID = '55/1730.cpp'
source_filename = "55/1730.cpp"
target datalayout = "e-m:e-p270:32:32-p271:32:32-p272:64:64-i64:64-f80:128-n8:16:32:64-S128"
target triple = "x86_64-pc-linux-gnu"

%"class.std::ios_base::Init" = type { i8 }
%"class.std::basic_istream" = type { i32 (...)**, i64, %"class.std::basic_ios" }
%"class.std::basic_ios" = type { %"class.std::ios_base", %"class.std::basic_ostream"*, i8, i8, %"class.std::basic_streambuf"*, %"class.std::ctype"*, %"class.std::num_put"*, %"class.std::num_get"* }
%"class.std::ios_base" = type { i32 (...)**, i64, i64, i32, i32, i32, %"struct.std::ios_base::_Callback_list"*, %"struct.std::ios_base::_Words", [8 x %"struct.std::ios_base::_Words"], i32, %"struct.std::ios_base::_Words"*, %"class.std::locale" }
%"struct.std::ios_base::_Callback_list" = type { %"struct.std::ios_base::_Callback_list"*, void (i32, %"class.std::ios_base"*, i32)*, i32, i32 }
%"struct.std::ios_base::_Words" = type { i8*, i64 }
%"class.std::locale" = type { %"class.std::locale::_Impl"* }
%"class.std::locale::_Impl" = type { i32, %"class.std::locale::facet"**, i64, %"class.std::locale::facet"**, i8** }
%"class.std::locale::facet" = type <{ i32 (...)**, i32, [4 x i8] }>
%"class.std::basic_ostream" = type { i32 (...)**, %"class.std::basic_ios" }
%"class.std::basic_streambuf" = type { i32 (...)**, i8*, i8*, i8*, i8*, i8*, i8*, %"class.std::locale" }
%"class.std::ctype" = type <{ %"class.std::locale::facet.base", [4 x i8], %struct.__locale_struct*, i8, [7 x i8], i32*, i32*, i16*, i8, [256 x i8], [256 x i8], i8, [6 x i8] }>
%"class.std::locale::facet.base" = type <{ i32 (...)**, i32 }>
%struct.__locale_struct = type { [13 x %struct.__locale_data*], i16*, i32*, i32*, [13 x i8*] }
%struct.__locale_data = type opaque
%"class.std::num_put" = type { %"class.std::locale::facet.base", [4 x i8] }
%"class.std::num_get" = type { %"class.std::locale::facet.base", [4 x i8] }

@_ZStL8__ioinit = internal global %"class.std::ios_base::Init" zeroinitializer, align 1
@__dso_handle = external hidden global i8
@_ZSt3cin = external dso_local global %"class.std::basic_istream", align 8
@_ZSt4cout = external dso_local global %"class.std::basic_ostream", align 8
@.str = private unnamed_addr constant [2 x i8] c"0\00", align 1
@llvm.global_ctors = appending global [1 x { i32, void ()*, i8* }] [{ i32, void ()*, i8* } { i32 65535, void ()* @_GLOBAL__sub_I_1730.cpp, i8* null }]

; Function Attrs: noinline uwtable
define internal void @__cxx_global_var_init() #0 section ".text.startup" {
  call void @_ZNSt8ios_base4InitC1Ev(%"class.std::ios_base::Init"* @_ZStL8__ioinit)
  %1 = call i32 @__cxa_atexit(void (i8*)* bitcast (void (%"class.std::ios_base::Init"*)* @_ZNSt8ios_base4InitD1Ev to void (i8*)*), i8* getelementptr inbounds (%"class.std::ios_base::Init", %"class.std::ios_base::Init"* @_ZStL8__ioinit, i32 0, i32 0), i8* @__dso_handle) #3
  ret void
}

declare dso_local void @_ZNSt8ios_base4InitC1Ev(%"class.std::ios_base::Init"*) unnamed_addr #1

; Function Attrs: nounwind
declare dso_local void @_ZNSt8ios_base4InitD1Ev(%"class.std::ios_base::Init"*) unnamed_addr #2

; Function Attrs: nounwind
declare dso_local i32 @__cxa_atexit(void (i8*)*, i8*, i8*) #3

; Function Attrs: noinline norecurse uwtable
define dso_local i32 @main() #4 {
  %1 = alloca i32, align 4
  %2 = alloca i64, align 8
  %3 = alloca i64, align 8
  %4 = alloca i64, align 8
  %5 = alloca i64, align 8
  %6 = alloca [100 x i8], align 16
  %7 = alloca [100 x i8], align 16
  %8 = alloca i32, align 4
  %9 = alloca i32, align 4
  %10 = alloca i32, align 4
  %11 = alloca i32, align 4
  %12 = alloca i32, align 4
  store i32 0, i32* %1, align 4
  store i64 0, i64* %5, align 8
  %13 = call dereferenceable(280) %"class.std::basic_istream"* @_ZNSirsERl(%"class.std::basic_istream"* @_ZSt3cin, i64* dereferenceable(8) %2)
  %14 = getelementptr inbounds [100 x i8], [100 x i8]* %6, i64 0, i64 0
  %15 = call dereferenceable(280) %"class.std::basic_istream"* @_ZStrsIcSt11char_traitsIcEERSt13basic_istreamIT_T0_ES6_PS3_(%"class.std::basic_istream"* dereferenceable(280) %13, i8* %14)
  %16 = call dereferenceable(280) %"class.std::basic_istream"* @_ZNSirsERl(%"class.std::basic_istream"* %15, i64* dereferenceable(8) %3)
  store i32 0, i32* %8, align 4
  br label %17

17:                                               ; preds = %47, %0
  %18 = load i32, i32* %8, align 4
  %19 = sext i32 %18 to i64
  %20 = getelementptr inbounds [100 x i8], [100 x i8]* %6, i64 0, i64 %19
  %21 = load i8, i8* %20, align 1
  %22 = sext i8 %21 to i32
  %23 = icmp ne i32 %22, 0
  br i1 %23, label %24, label %50

24:                                               ; preds = %17
  %25 = load i32, i32* %8, align 4
  %26 = sext i32 %25 to i64
  %27 = getelementptr inbounds [100 x i8], [100 x i8]* %6, i64 0, i64 %26
  %28 = load i8, i8* %27, align 1
  %29 = sext i8 %28 to i32
  %30 = icmp sge i32 %29, 97
  br i1 %30, label %31, label %46

31:                                               ; preds = %24
  %32 = load i32, i32* %8, align 4
  %33 = sext i32 %32 to i64
  %34 = getelementptr inbounds [100 x i8], [100 x i8]* %6, i64 0, i64 %33
  %35 = load i8, i8* %34, align 1
  %36 = sext i8 %35 to i32
  %37 = icmp sle i32 %36, 122
  br i1 %37, label %38, label %46

38:                                               ; preds = %31
  %39 = load i32, i32* %8, align 4
  %40 = sext i32 %39 to i64
  %41 = getelementptr inbounds [100 x i8], [100 x i8]* %6, i64 0, i64 %40
  %42 = load i8, i8* %41, align 1
  %43 = sext i8 %42 to i32
  %44 = sub nsw i32 %43, 32
  %45 = trunc i32 %44 to i8
  store i8 %45, i8* %41, align 1
  br label %46

46:                                               ; preds = %38, %31, %24
  br label %47

47:                                               ; preds = %46
  %48 = load i32, i32* %8, align 4
  %49 = add nsw i32 %48, 1
  store i32 %49, i32* %8, align 4
  br label %17

50:                                               ; preds = %17
  %51 = getelementptr inbounds [100 x i8], [100 x i8]* %6, i64 0, i64 0
  %52 = call i64 @strlen(i8* %51) #6
  store i64 %52, i64* %4, align 8
  store i32 0, i32* %9, align 4
  br label %53

53:                                               ; preds = %129, %50
  %54 = load i32, i32* %9, align 4
  %55 = sext i32 %54 to i64
  %56 = load i64, i64* %4, align 8
  %57 = icmp slt i64 %55, %56
  br i1 %57, label %58, label %132

58:                                               ; preds = %53
  %59 = load i32, i32* %9, align 4
  %60 = sext i32 %59 to i64
  %61 = getelementptr inbounds [100 x i8], [100 x i8]* %6, i64 0, i64 %60
  %62 = load i8, i8* %61, align 1
  %63 = sext i8 %62 to i32
  %64 = icmp sge i32 %63, 48
  br i1 %64, label %65, label %93

65:                                               ; preds = %58
  %66 = load i32, i32* %9, align 4
  %67 = sext i32 %66 to i64
  %68 = getelementptr inbounds [100 x i8], [100 x i8]* %6, i64 0, i64 %67
  %69 = load i8, i8* %68, align 1
  %70 = sext i8 %69 to i32
  %71 = icmp sle i32 %70, 57
  br i1 %71, label %72, label %93

72:                                               ; preds = %65
  %73 = load i64, i64* %2, align 8
  %74 = sitofp i64 %73 to double
  %75 = load i64, i64* %4, align 8
  %76 = sub nsw i64 %75, 1
  %77 = load i32, i32* %9, align 4
  %78 = sext i32 %77 to i64
  %79 = sub nsw i64 %76, %78
  %80 = sitofp i64 %79 to double
  %81 = call double @pow(double %74, double %80) #3
  %82 = fptosi double %81 to i32
  %83 = load i32, i32* %9, align 4
  %84 = sext i32 %83 to i64
  %85 = getelementptr inbounds [100 x i8], [100 x i8]* %6, i64 0, i64 %84
  %86 = load i8, i8* %85, align 1
  %87 = sext i8 %86 to i32
  %88 = sub nsw i32 %87, 48
  %89 = mul nsw i32 %82, %88
  %90 = sext i32 %89 to i64
  %91 = load i64, i64* %5, align 8
  %92 = add nsw i64 %91, %90
  store i64 %92, i64* %5, align 8
  br label %93

93:                                               ; preds = %72, %65, %58
  %94 = load i32, i32* %9, align 4
  %95 = sext i32 %94 to i64
  %96 = getelementptr inbounds [100 x i8], [100 x i8]* %6, i64 0, i64 %95
  %97 = load i8, i8* %96, align 1
  %98 = sext i8 %97 to i32
  %99 = icmp sge i32 %98, 65
  br i1 %99, label %100, label %128

100:                                              ; preds = %93
  %101 = load i32, i32* %9, align 4
  %102 = sext i32 %101 to i64
  %103 = getelementptr inbounds [100 x i8], [100 x i8]* %6, i64 0, i64 %102
  %104 = load i8, i8* %103, align 1
  %105 = sext i8 %104 to i32
  %106 = icmp sle i32 %105, 90
  br i1 %106, label %107, label %128

107:                                              ; preds = %100
  %108 = load i64, i64* %2, align 8
  %109 = sitofp i64 %108 to double
  %110 = load i64, i64* %4, align 8
  %111 = sub nsw i64 %110, 1
  %112 = load i32, i32* %9, align 4
  %113 = sext i32 %112 to i64
  %114 = sub nsw i64 %111, %113
  %115 = sitofp i64 %114 to double
  %116 = call double @pow(double %109, double %115) #3
  %117 = fptosi double %116 to i32
  %118 = load i32, i32* %9, align 4
  %119 = sext i32 %118 to i64
  %120 = getelementptr inbounds [100 x i8], [100 x i8]* %6, i64 0, i64 %119
  %121 = load i8, i8* %120, align 1
  %122 = sext i8 %121 to i32
  %123 = sub nsw i32 %122, 55
  %124 = mul nsw i32 %117, %123
  %125 = sext i32 %124 to i64
  %126 = load i64, i64* %5, align 8
  %127 = add nsw i64 %126, %125
  store i64 %127, i64* %5, align 8
  br label %128

128:                                              ; preds = %107, %100, %93
  br label %129

129:                                              ; preds = %128
  %130 = load i32, i32* %9, align 4
  %131 = add nsw i32 %130, 1
  store i32 %131, i32* %9, align 4
  br label %53

132:                                              ; preds = %53
  store i32 0, i32* %10, align 4
  %133 = load i64, i64* %5, align 8
  %134 = icmp eq i64 %133, 0
  br i1 %134, label %135, label %137

135:                                              ; preds = %132
  %136 = call dereferenceable(272) %"class.std::basic_ostream"* @_ZStlsISt11char_traitsIcEERSt13basic_ostreamIcT_ES5_PKc(%"class.std::basic_ostream"* dereferenceable(272) @_ZSt4cout, i8* getelementptr inbounds ([2 x i8], [2 x i8]* @.str, i64 0, i64 0))
  br label %185

137:                                              ; preds = %132
  br label %138

138:                                              ; preds = %163, %137
  %139 = load i64, i64* %5, align 8
  %140 = icmp sgt i64 %139, 0
  br i1 %140, label %141, label %169

141:                                              ; preds = %138
  %142 = load i64, i64* %5, align 8
  %143 = load i64, i64* %3, align 8
  %144 = srem i64 %142, %143
  %145 = trunc i64 %144 to i32
  store i32 %145, i32* %11, align 4
  %146 = load i32, i32* %11, align 4
  %147 = icmp sge i32 %146, 10
  br i1 %147, label %148, label %156

148:                                              ; preds = %141
  %149 = load i32, i32* %11, align 4
  %150 = add nsw i32 65, %149
  %151 = sub nsw i32 %150, 10
  %152 = trunc i32 %151 to i8
  %153 = load i32, i32* %10, align 4
  %154 = sext i32 %153 to i64
  %155 = getelementptr inbounds [100 x i8], [100 x i8]* %7, i64 0, i64 %154
  store i8 %152, i8* %155, align 1
  br label %163

156:                                              ; preds = %141
  %157 = load i32, i32* %11, align 4
  %158 = add nsw i32 48, %157
  %159 = trunc i32 %158 to i8
  %160 = load i32, i32* %10, align 4
  %161 = sext i32 %160 to i64
  %162 = getelementptr inbounds [100 x i8], [100 x i8]* %7, i64 0, i64 %161
  store i8 %159, i8* %162, align 1
  br label %163

163:                                              ; preds = %156, %148
  %164 = load i64, i64* %3, align 8
  %165 = load i64, i64* %5, align 8
  %166 = sdiv i64 %165, %164
  store i64 %166, i64* %5, align 8
  %167 = load i32, i32* %10, align 4
  %168 = add nsw i32 %167, 1
  store i32 %168, i32* %10, align 4
  br label %138

169:                                              ; preds = %138
  %170 = load i32, i32* %10, align 4
  %171 = sub nsw i32 %170, 1
  store i32 %171, i32* %12, align 4
  br label %172

172:                                              ; preds = %181, %169
  %173 = load i32, i32* %12, align 4
  %174 = icmp sge i32 %173, 0
  br i1 %174, label %175, label %184

175:                                              ; preds = %172
  %176 = load i32, i32* %12, align 4
  %177 = sext i32 %176 to i64
  %178 = getelementptr inbounds [100 x i8], [100 x i8]* %7, i64 0, i64 %177
  %179 = load i8, i8* %178, align 1
  %180 = call dereferenceable(272) %"class.std::basic_ostream"* @_ZStlsISt11char_traitsIcEERSt13basic_ostreamIcT_ES5_c(%"class.std::basic_ostream"* dereferenceable(272) @_ZSt4cout, i8 signext %179)
  br label %181

181:                                              ; preds = %175
  %182 = load i32, i32* %12, align 4
  %183 = add nsw i32 %182, -1
  store i32 %183, i32* %12, align 4
  br label %172

184:                                              ; preds = %172
  br label %185

185:                                              ; preds = %184, %135
  ret i32 0
}

declare dso_local dereferenceable(280) %"class.std::basic_istream"* @_ZStrsIcSt11char_traitsIcEERSt13basic_istreamIT_T0_ES6_PS3_(%"class.std::basic_istream"* dereferenceable(280), i8*) #1

declare dso_local dereferenceable(280) %"class.std::basic_istream"* @_ZNSirsERl(%"class.std::basic_istream"*, i64* dereferenceable(8)) #1

; Function Attrs: nounwind readonly
declare dso_local i64 @strlen(i8*) #5

; Function Attrs: nounwind
declare dso_local double @pow(double, double) #2

declare dso_local dereferenceable(272) %"class.std::basic_ostream"* @_ZStlsISt11char_traitsIcEERSt13basic_ostreamIcT_ES5_PKc(%"class.std::basic_ostream"* dereferenceable(272), i8*) #1

declare dso_local dereferenceable(272) %"class.std::basic_ostream"* @_ZStlsISt11char_traitsIcEERSt13basic_ostreamIcT_ES5_c(%"class.std::basic_ostream"* dereferenceable(272), i8 signext) #1

; Function Attrs: noinline uwtable
define internal void @_GLOBAL__sub_I_1730.cpp() #0 section ".text.startup" {
  call void @__cxx_global_var_init()
  ret void
}


!llvm.module.flags = !{!0}
!llvm.ident = !{!1}

!0 = !{i32 1, !"wchar_size", i32 4}
!1 = !{!"clang version 10.0.0-4ubuntu1 "}
