; ModuleID = 'source-C-CXX/54/1730.cpp'
source_filename = "source-C-CXX/54/1730.cpp"
target datalayout = "e-m:e-p270:32:32-p271:32:32-p272:64:64-i64:64-f80:128-n8:16:32:64-S128"
target triple = "x86_64-pc-linux-gnu"

%"class.std::ios_base::Init" = type { i8 }
%"class.std::basic_istream" = type { i32 (...)**, i64, %"class.std::basic_ios" }
%"class.std::basic_ios" = type { %"class.std::ios_base", %"class.std::basic_ostream"*, i8, i8, %"class.std::basic_streambuf"*, %"class.std::ctype"*, %"class.std::num_put"*, %"class.std::num_get"* }
%"class.std::ios_base" = type { i32 (...)**, i64, i64, i32, i32, i32, %"struct.std::ios_base::_Callback_list"*, %"struct.std::ios_base::_Words", [8 x %"struct.std::ios_base::_Words"], i32, %"struct.std::ios_base::_Words"*, %"class.std::locale" }
%"struct.std::ios_base::_Callback_list" = type { %"struct.std::ios_base::_Callback_list"*, void (i32, %"class.std::ios_base"*, i32)*, i32, i32 }
%"struct.std::ios_base::_Words" = type { i8*, i64 }
%"class.std::locale" = type { %"class.std::locale::_Impl"* }
%"class.std::locale::_Impl" = type { i32, %"class.std::locale::facet"**, i64, %"class.std::locale::facet"**, i8** }
%"class.std::locale::facet" = type <{ i32 (...)**, i32, [4 x i8] }>
%"class.std::basic_ostream" = type { i32 (...)**, %"class.std::basic_ios" }
%"class.std::basic_streambuf" = type { i32 (...)**, i8*, i8*, i8*, i8*, i8*, i8*, %"class.std::locale" }
%"class.std::ctype" = type <{ %"class.std::locale::facet.base", [4 x i8], %struct.__locale_struct*, i8, [7 x i8], i32*, i32*, i16*, i8, [256 x i8], [256 x i8], i8, [6 x i8] }>
%"class.std::locale::facet.base" = type <{ i32 (...)**, i32 }>
%struct.__locale_struct = type { [13 x %struct.__locale_data*], i16*, i32*, i32*, [13 x i8*] }
%struct.__locale_data = type opaque
%"class.std::num_put" = type { %"class.std::locale::facet.base", [4 x i8] }
%"class.std::num_get" = type { %"class.std::locale::facet.base", [4 x i8] }

@_ZStL8__ioinit = internal global %"class.std::ios_base::Init" zeroinitializer, align 1
@__dso_handle = external hidden global i8
@_ZSt3cin = external global %"class.std::basic_istream", align 8
@_ZSt4cout = external global %"class.std::basic_ostream", align 8
@.str = private unnamed_addr constant [2 x i8] c"0\00", align 1
@llvm.global_ctors = appending global [1 x { i32, void ()*, i8* }] [{ i32, void ()*, i8* } { i32 65535, void ()* @_GLOBAL__sub_I_1730.cpp, i8* null }]

declare void @_ZNSt8ios_base4InitC1Ev(%"class.std::ios_base::Init"* nonnull align 1 dereferenceable(1)) unnamed_addr #0

; Function Attrs: nounwind
declare void @_ZNSt8ios_base4InitD1Ev(%"class.std::ios_base::Init"* nonnull align 1 dereferenceable(1)) unnamed_addr #1

; Function Attrs: nofree nounwind
declare i32 @__cxa_atexit(void (i8*)*, i8*, i8*) local_unnamed_addr #2

; Function Attrs: mustprogress norecurse sspstrong uwtable
define dso_local i32 @main() local_unnamed_addr #3 {
  %1 = alloca i8, align 1
  %2 = alloca i64, align 8
  %3 = alloca i64, align 8
  %4 = alloca [100 x i8], align 16
  %5 = alloca [100 x i8], align 16
  %6 = bitcast i64* %2 to i8*
  call void @llvm.lifetime.start.p0i8(i64 8, i8* nonnull %6) #8
  %7 = bitcast i64* %3 to i8*
  call void @llvm.lifetime.start.p0i8(i64 8, i8* nonnull %7) #8
  %8 = getelementptr inbounds [100 x i8], [100 x i8]* %4, i64 0, i64 0
  call void @llvm.lifetime.start.p0i8(i64 100, i8* nonnull %8) #8
  %9 = getelementptr inbounds [100 x i8], [100 x i8]* %5, i64 0, i64 0
  call void @llvm.lifetime.start.p0i8(i64 100, i8* nonnull %9) #8
  %10 = call nonnull align 8 dereferenceable(16) %"class.std::basic_istream"* @_ZNSi10_M_extractIlEERSiRT_(%"class.std::basic_istream"* nonnull align 8 dereferenceable(16) @_ZSt3cin, i64* nonnull align 8 dereferenceable(8) %2)
  call void @_ZSt17__istream_extractRSiPcl(%"class.std::basic_istream"* nonnull align 8 dereferenceable(16) %10, i8* nonnull %8, i64 100)
  %11 = call nonnull align 8 dereferenceable(16) %"class.std::basic_istream"* @_ZNSi10_M_extractIlEERSiRT_(%"class.std::basic_istream"* nonnull align 8 dereferenceable(16) %10, i64* nonnull align 8 dereferenceable(8) %3)
  %12 = load i8, i8* %8, align 16, !tbaa !5
  %13 = icmp eq i8 %12, 0
  br i1 %13, label %14, label %17

14:                                               ; preds = %25, %0
  %15 = call i64 @strlen(i8* noundef nonnull %8) #9
  %16 = icmp sgt i64 %15, 0
  br i1 %16, label %35, label %79

17:                                               ; preds = %0, %25
  %18 = phi i64 [ %26, %25 ], [ 0, %0 ]
  %19 = phi i8 [ %28, %25 ], [ %12, %0 ]
  %20 = phi i8* [ %27, %25 ], [ %8, %0 ]
  %21 = add i8 %19, -97
  %22 = icmp ult i8 %21, 26
  br i1 %22, label %23, label %25

23:                                               ; preds = %17
  %24 = add nsw i8 %19, -32
  store i8 %24, i8* %20, align 1, !tbaa !5
  br label %25

25:                                               ; preds = %17, %23
  %26 = add nuw i64 %18, 1
  %27 = getelementptr inbounds [100 x i8], [100 x i8]* %4, i64 0, i64 %26
  %28 = load i8, i8* %27, align 1, !tbaa !5
  %29 = icmp eq i8 %28, 0
  br i1 %29, label %14, label %17, !llvm.loop !8

30:                                               ; preds = %75
  %31 = icmp eq i64 %76, 0
  br i1 %31, label %79, label %32

32:                                               ; preds = %30
  %33 = load i64, i64* %3, align 8
  %34 = icmp sgt i64 %76, 0
  br i1 %34, label %86, label %109

35:                                               ; preds = %14, %75
  %36 = phi i64 [ %77, %75 ], [ 0, %14 ]
  %37 = phi i64 [ %76, %75 ], [ 0, %14 ]
  %38 = getelementptr inbounds [100 x i8], [100 x i8]* %4, i64 0, i64 %36
  %39 = load i8, i8* %38, align 1, !tbaa !5
  %40 = add i8 %39, -48
  %41 = icmp ult i8 %40, 10
  br i1 %41, label %42, label %56

42:                                               ; preds = %35
  %43 = load i64, i64* %2, align 8, !tbaa !10
  %44 = sitofp i64 %43 to double
  %45 = xor i64 %36, -1
  %46 = add i64 %15, %45
  %47 = sitofp i64 %46 to double
  %48 = call double @pow(double %44, double %47) #8
  %49 = fptosi double %48 to i32
  %50 = load i8, i8* %38, align 1, !tbaa !5
  %51 = sext i8 %50 to i32
  %52 = add nsw i32 %51, -48
  %53 = mul nsw i32 %52, %49
  %54 = sext i32 %53 to i64
  %55 = add nsw i64 %37, %54
  br label %56

56:                                               ; preds = %42, %35
  %57 = phi i8 [ %50, %42 ], [ %39, %35 ]
  %58 = phi i64 [ %55, %42 ], [ %37, %35 ]
  %59 = add i8 %57, -65
  %60 = icmp ult i8 %59, 26
  br i1 %60, label %61, label %75

61:                                               ; preds = %56
  %62 = load i64, i64* %2, align 8, !tbaa !10
  %63 = sitofp i64 %62 to double
  %64 = xor i64 %36, -1
  %65 = add i64 %15, %64
  %66 = sitofp i64 %65 to double
  %67 = call double @pow(double %63, double %66) #8
  %68 = fptosi double %67 to i32
  %69 = load i8, i8* %38, align 1, !tbaa !5
  %70 = sext i8 %69 to i32
  %71 = add nsw i32 %70, -55
  %72 = mul nsw i32 %71, %68
  %73 = sext i32 %72 to i64
  %74 = add nsw i64 %58, %73
  br label %75

75:                                               ; preds = %56, %61
  %76 = phi i64 [ %74, %61 ], [ %58, %56 ]
  %77 = add nuw nsw i64 %36, 1
  %78 = icmp eq i64 %77, %15
  br i1 %78, label %30, label %35, !llvm.loop !12

79:                                               ; preds = %14, %30
  %80 = call nonnull align 8 dereferenceable(8) %"class.std::basic_ostream"* @_ZSt16__ostream_insertIcSt11char_traitsIcEERSt13basic_ostreamIT_T0_ES6_PKS3_l(%"class.std::basic_ostream"* nonnull align 8 dereferenceable(8) @_ZSt4cout, i8* nonnull getelementptr inbounds ([2 x i8], [2 x i8]* @.str, i64 0, i64 0), i64 1)
  br label %109

81:                                               ; preds = %86
  %82 = trunc i64 %97 to i32
  %83 = icmp sgt i32 %82, 0
  br i1 %83, label %84, label %109

84:                                               ; preds = %81
  %85 = and i64 %97, 4294967295
  br label %99

86:                                               ; preds = %32, %86
  %87 = phi i64 [ %97, %86 ], [ 0, %32 ]
  %88 = phi i64 [ %96, %86 ], [ %76, %32 ]
  %89 = srem i64 %88, %33
  %90 = trunc i64 %89 to i32
  %91 = icmp sgt i32 %90, 9
  %92 = trunc i64 %89 to i8
  %93 = select i1 %91, i8 55, i8 48
  %94 = add i8 %93, %92
  %95 = getelementptr inbounds [100 x i8], [100 x i8]* %5, i64 0, i64 %87
  store i8 %94, i8* %95, align 1
  %96 = sdiv i64 %88, %33
  %97 = add nuw i64 %87, 1
  %98 = icmp sgt i64 %96, 0
  br i1 %98, label %86, label %81, !llvm.loop !13

99:                                               ; preds = %84, %99
  %100 = phi i64 [ %85, %84 ], [ %108, %99 ]
  %101 = phi i32 [ %82, %84 ], [ %102, %99 ]
  %102 = add nsw i32 %101, -1
  %103 = zext i32 %102 to i64
  %104 = getelementptr inbounds [100 x i8], [100 x i8]* %5, i64 0, i64 %103
  %105 = load i8, i8* %104, align 1, !tbaa !5
  call void @llvm.lifetime.start.p0i8(i64 1, i8* nonnull %1)
  store i8 %105, i8* %1, align 1, !tbaa !5
  %106 = call nonnull align 8 dereferenceable(8) %"class.std::basic_ostream"* @_ZSt16__ostream_insertIcSt11char_traitsIcEERSt13basic_ostreamIT_T0_ES6_PKS3_l(%"class.std::basic_ostream"* nonnull align 8 dereferenceable(8) @_ZSt4cout, i8* nonnull %1, i64 1)
  call void @llvm.lifetime.end.p0i8(i64 1, i8* nonnull %1)
  %107 = icmp sgt i64 %100, 1
  %108 = add nsw i64 %100, -1
  br i1 %107, label %99, label %109, !llvm.loop !14

109:                                              ; preds = %99, %32, %81, %79
  call void @llvm.lifetime.end.p0i8(i64 100, i8* nonnull %9) #8
  call void @llvm.lifetime.end.p0i8(i64 100, i8* nonnull %8) #8
  call void @llvm.lifetime.end.p0i8(i64 8, i8* nonnull %7) #8
  call void @llvm.lifetime.end.p0i8(i64 8, i8* nonnull %6) #8
  ret i32 0
}

; Function Attrs: argmemonly mustprogress nofree nosync nounwind willreturn
declare void @llvm.lifetime.start.p0i8(i64 immarg, i8* nocapture) #4

; Function Attrs: argmemonly mustprogress nofree nosync nounwind willreturn
declare void @llvm.lifetime.end.p0i8(i64 immarg, i8* nocapture) #4

; Function Attrs: argmemonly mustprogress nofree nounwind readonly willreturn
declare i64 @strlen(i8* nocapture) local_unnamed_addr #5

; Function Attrs: mustprogress nofree nounwind willreturn
declare double @pow(double, double) local_unnamed_addr #6

declare nonnull align 8 dereferenceable(16) %"class.std::basic_istream"* @_ZNSi10_M_extractIlEERSiRT_(%"class.std::basic_istream"* nonnull align 8 dereferenceable(16), i64* nonnull align 8 dereferenceable(8)) local_unnamed_addr #0

declare void @_ZSt17__istream_extractRSiPcl(%"class.std::basic_istream"* nonnull align 8 dereferenceable(16), i8*, i64) local_unnamed_addr #0

declare nonnull align 8 dereferenceable(8) %"class.std::basic_ostream"* @_ZSt16__ostream_insertIcSt11char_traitsIcEERSt13basic_ostreamIT_T0_ES6_PKS3_l(%"class.std::basic_ostream"* nonnull align 8 dereferenceable(8), i8*, i64) local_unnamed_addr #0

; Function Attrs: sspstrong uwtable
define internal void @_GLOBAL__sub_I_1730.cpp() #7 section ".text.startup" {
  tail call void @_ZNSt8ios_base4InitC1Ev(%"class.std::ios_base::Init"* nonnull align 1 dereferenceable(1) @_ZStL8__ioinit)
  %1 = tail call i32 @__cxa_atexit(void (i8*)* bitcast (void (%"class.std::ios_base::Init"*)* @_ZNSt8ios_base4InitD1Ev to void (i8*)*), i8* getelementptr inbounds (%"class.std::ios_base::Init", %"class.std::ios_base::Init"* @_ZStL8__ioinit, i64 0, i32 0), i8* nonnull @__dso_handle) #8
  ret void
}


!llvm.module.flags = !{!0, !1, !2, !3}
!llvm.ident = !{!4}

!0 = !{i32 1, !"wchar_size", i32 4}
!1 = !{i32 7, !"PIC Level", i32 2}
!2 = !{i32 7, !"PIE Level", i32 2}
!3 = !{i32 7, !"uwtable", i32 1}
!4 = !{!"clang version 13.0.0"}
!5 = !{!6, !6, i64 0}
!6 = !{!"omnipotent char", !7, i64 0}
!7 = !{!"Simple C++ TBAA"}
!8 = distinct !{!8, !9}
!9 = !{!"llvm.loop.mustprogress"}
!10 = !{!11, !11, i64 0}
!11 = !{!"long", !6, i64 0}
!12 = distinct !{!12, !9}
!13 = distinct !{!13, !9}
!14 = distinct !{!14, !9}
